; Function Attrs: mustprogress nounwind uwtable
define void @_ZN5arrow3ipc14MessageDecoderD2Ev(ptr noundef nonnull align 8 captures(none) dereferenceable(16) initializes((0, 8)) %0) unnamed_addr #3 align 2 personality ptr @__gxx_personality_v0 {
  store ptr getelementptr inbounds nuw inrange(-16, 16) (i8, ptr @_ZTVN5arrow3ipc14MessageDecoderE, i64 16), ptr %0, align 8, !tbaa !20
  %2 = getelementptr inbounds nuw i8, ptr %0, i64 8
  %3 = load ptr, ptr %2, align 8, !tbaa !174
  %.not.i = icmp eq ptr %3, null
  br i1 %.not.i, label %_ZNSt10unique_ptrIN5arrow3ipc14MessageDecoder18MessageDecoderImplESt14default_deleteIS3_EED2Ev.exit, label %_ZNKSt14default_deleteIN5arrow3ipc14MessageDecoder18MessageDecoderImplEEclEPS3_.exit.i

_ZNKSt14default_deleteIN5arrow3ipc14MessageDecoder18MessageDecoderImplEEclEPS3_.exit.i: ; preds = %1
  tail call void @_ZN5arrow3ipc14MessageDecoder18MessageDecoderImplD2Ev(ptr noundef nonnull align 8 dereferenceable(105) %3) #29
  tail call void @_ZdlPvm(ptr noundef nonnull %3, i64 noundef 112) #30
  br label %_ZNSt10unique_ptrIN5arrow3ipc14MessageDecoder18MessageDecoderImplESt14default_deleteIS3_EED2Ev.exit

_ZNSt10unique_ptrIN5arrow3ipc14MessageDecoder18MessageDecoderImplESt14default_deleteIS3_EED2Ev.exit: ; preds = %1, %_ZNKSt14default_deleteIN5arrow3ipc14MessageDecoder18MessageDecoderImplEEclEPS3_.exit.i
  store ptr null, ptr %2, align 8, !tbaa !174
  ret void
}